target datalayout = "e-m:e-p270:32:32-p271:32:32-p272:64:64-i64:64-i128:128-f80:128-n8:16:32:64-S128"
target triple = "x86_64-pc-linux-gnu"

%struct.ZDICT_params_t = type { i32, i32, i32 }

@repStartValue = internal constant [3 x i32] [i32 1, i32 4, i32 8], align 4
@stderr = external global ptr, align 8
@.str = private unnamed_addr constant [7 x i8] c"\0D%70s\0D\00", align 1
@.str.1 = private unnamed_addr constant [1 x i8] zeroinitializer, align 1
@.str.2 = private unnamed_addr constant [17 x i8] c"statistics ... \0A\00", align 1

; Function Attrs: nounwind uwtable
define internal i32 @ERR_isError(i64 noundef %0) #0 {
  %2 = alloca i64, align 8
  store i64 %0, ptr %2, align 8, !tbaa !3
  %3 = load i64, ptr %2, align 8, !tbaa !3
  %4 = icmp ugt i64 %3, -120
  %5 = zext i1 %4 to i32
  ret i32 %5
}

; Function Attrs: inlinehint nounwind uwtable
define internal i32 @MEM_swap32(i32 noundef %0) #1 {
  %2 = alloca i32, align 4
  store i32 %0, ptr %2, align 4, !tbaa !13
  %3 = load i32, ptr %2, align 4, !tbaa !13
  %4 = call i32 @llvm.bswap.i32(i32 %3)
  ret i32 %4
}

; Function Attrs: inlinehint nounwind uwtable
define internal void @MEM_write32(ptr noundef %0, i32 noundef %1) #1 {
  %3 = alloca ptr, align 8
  %4 = alloca i32, align 4
  store ptr %0, ptr %3, align 8, !tbaa !7
  store i32 %1, ptr %4, align 4, !tbaa !13
  %5 = load i32, ptr %4, align 4, !tbaa !13
  %6 = load ptr, ptr %3, align 8, !tbaa !7
  store i32 %5, ptr %6, align 1, !tbaa !13
  ret void
}

; Function Attrs: inlinehint nounwind uwtable
define internal i32 @MEM_isLittleEndian() #1 {
  ret i32 1
}

; Function Attrs: nounwind uwtable
define i32 @ZDICT_isError(i64 noundef %0) #0 {
  %2 = alloca i64, align 8
  store i64 %0, ptr %2, align 8, !tbaa !3
  %3 = load i64, ptr %2, align 8, !tbaa !3
  %4 = call i32 @ERR_isError(i64 noundef %3)
  ret i32 %4
}

; Function Attrs: inlinehint nounwind uwtable
define internal void @MEM_writeLE32(ptr noundef %0, i32 noundef %1) #1 {
  %3 = alloca ptr, align 8
  %4 = alloca i32, align 4
  store ptr %0, ptr %3, align 8, !tbaa !7
  store i32 %1, ptr %4, align 4, !tbaa !13
  %5 = call i32 @MEM_isLittleEndian()
  %6 = icmp ne i32 %5, 0
  br i1 %6, label %7, label %10

7:                                                ; preds = %2
  %8 = load ptr, ptr %3, align 8, !tbaa !7
  %9 = load i32, ptr %4, align 4, !tbaa !13
  call void @MEM_write32(ptr noundef %8, i32 noundef %9)
  br label %14

10:                                               ; preds = %2
  %11 = load ptr, ptr %3, align 8, !tbaa !7
  %12 = load i32, ptr %4, align 4, !tbaa !13
  %13 = call i32 @MEM_swap32(i32 noundef %12)
  call void @MEM_write32(ptr noundef %11, i32 noundef %13)
  br label %14

14:                                               ; preds = %10, %7
  ret void
}

; Function Attrs: nounwind uwtable
define internal i32 @ZDICT_maxRep(ptr noundef %0) #0 {
  %2 = alloca ptr, align 8
  %3 = alloca i32, align 4
  %4 = alloca i32, align 4
  store ptr %0, ptr %2, align 8, !tbaa !9
  call void @llvm.lifetime.start.p0(i64 4, ptr %3) #10
  %5 = load ptr, ptr %2, align 8, !tbaa !9
  %6 = getelementptr inbounds i32, ptr %5, i64 0
  %7 = load i32, ptr %6, align 4, !tbaa !13
  store i32 %7, ptr %3, align 4, !tbaa !13
  call void @llvm.lifetime.start.p0(i64 4, ptr %4) #10
  store i32 1, ptr %4, align 4, !tbaa !13
  br label %8

8:                                                ; preds = %29, %1
  %9 = load i32, ptr %4, align 4, !tbaa !13
  %10 = icmp slt i32 %9, 3
  br i1 %10, label %11, label %32

11:                                               ; preds = %8
  %12 = load i32, ptr %3, align 4, !tbaa !13
  %13 = load ptr, ptr %2, align 8, !tbaa !9
  %14 = load i32, ptr %4, align 4, !tbaa !13
  %15 = sext i32 %14 to i64
  %16 = getelementptr inbounds i32, ptr %13, i64 %15
  %17 = load i32, ptr %16, align 4, !tbaa !13
  %18 = icmp ugt i32 %12, %17
  br i1 %18, label %19, label %21

19:                                               ; preds = %11
  %20 = load i32, ptr %3, align 4, !tbaa !13
  br label %27

21:                                               ; preds = %11
  %22 = load ptr, ptr %2, align 8, !tbaa !9
  %23 = load i32, ptr %4, align 4, !tbaa !13
  %24 = sext i32 %23 to i64
  %25 = getelementptr inbounds i32, ptr %22, i64 %24
  %26 = load i32, ptr %25, align 4, !tbaa !13
  br label %27

27:                                               ; preds = %21, %19
  %28 = phi i32 [ %20, %19 ], [ %26, %21 ]
  store i32 %28, ptr %3, align 4, !tbaa !13
  br label %29

29:                                               ; preds = %27
  %30 = load i32, ptr %4, align 4, !tbaa !13
  %31 = add nsw i32 %30, 1
  store i32 %31, ptr %4, align 4, !tbaa !13
  br label %8, !llvm.loop !23

32:                                               ; preds = %8
  %33 = load i32, ptr %3, align 4, !tbaa !13
  call void @llvm.lifetime.end.p0(i64 4, ptr %4) #10
  call void @llvm.lifetime.end.p0(i64 4, ptr %3) #10
  ret i32 %33
}

; Function Attrs: nounwind uwtable
define i64 @ZDICT_finalizeDictionary(ptr noundef %0, i64 noundef %1, ptr noundef %2, i64 noundef %3, ptr noundef %4, ptr noundef %5, i32 noundef %6, ptr noundef byval(%struct.ZDICT_params_t) align 8 %7) #0 {
  %9 = alloca i64, align 8
  %10 = alloca ptr, align 8
  %11 = alloca i64, align 8
  %12 = alloca ptr, align 8
  %13 = alloca i64, align 8
  %14 = alloca ptr, align 8
  %15 = alloca ptr, align 8
  %16 = alloca i32, align 4
  %17 = alloca i64, align 8
  %18 = alloca [256 x i8], align 16
  %19 = alloca i32, align 4
  %20 = alloca i32, align 4
  %21 = alloca i64, align 8
  %22 = alloca i64, align 8
  %23 = alloca i32, align 4
  %24 = alloca i64, align 8
  %25 = alloca i32, align 4
  %26 = alloca i32, align 4
  %27 = alloca i64, align 8
  %28 = alloca i64, align 8
  %29 = alloca ptr, align 8
  %30 = alloca ptr, align 8
  %31 = alloca ptr, align 8
  store ptr %0, ptr %10, align 8, !tbaa !7
  store i64 %1, ptr %11, align 8, !tbaa !3
  store ptr %2, ptr %12, align 8, !tbaa !7
  store i64 %3, ptr %13, align 8, !tbaa !3
  store ptr %4, ptr %14, align 8, !tbaa !7
  store ptr %5, ptr %15, align 8, !tbaa !11
  store i32 %6, ptr %16, align 4, !tbaa !13
  call void @llvm.lifetime.start.p0(i64 8, ptr %17) #10
  call void @llvm.lifetime.start.p0(i64 256, ptr %18) #10
  call void @llvm.lifetime.start.p0(i64 4, ptr %19) #10
  %32 = getelementptr inbounds nuw %struct.ZDICT_params_t, ptr %7, i32 0, i32 0
  %33 = load i32, ptr %32, align 8, !tbaa !15
  %34 = icmp eq i32 %33, 0
  br i1 %34, label %35, label %36

35:                                               ; preds = %8
  br label %39

36:                                               ; preds = %8
  %37 = getelementptr inbounds nuw %struct.ZDICT_params_t, ptr %7, i32 0, i32 0
  %38 = load i32, ptr %37, align 8, !tbaa !15
  br label %39

39:                                               ; preds = %36, %35
  %40 = phi i32 [ 3, %35 ], [ %38, %36 ]
  store i32 %40, ptr %19, align 4, !tbaa !13
  call void @llvm.lifetime.start.p0(i64 4, ptr %20) #10
  %41 = getelementptr inbounds nuw %struct.ZDICT_params_t, ptr %7, i32 0, i32 1
  %42 = load i32, ptr %41, align 4, !tbaa !17
  store i32 %42, ptr %20, align 4, !tbaa !13
  call void @llvm.lifetime.start.p0(i64 8, ptr %21) #10
  %43 = call i32 @ZDICT_maxRep(ptr noundef @repStartValue)
  %44 = zext i32 %43 to i64
  store i64 %44, ptr %21, align 8, !tbaa !3
  call void @llvm.lifetime.start.p0(i64 8, ptr %22) #10
  br label %45

45:                                               ; preds = %39
  br label %46

46:                                               ; preds = %45
  br label %47

47:                                               ; preds = %46
  %48 = load i64, ptr %11, align 8, !tbaa !3
  %49 = load i64, ptr %13, align 8, !tbaa !3
  %50 = icmp ult i64 %48, %49
  br i1 %50, label %51, label %52

51:                                               ; preds = %47
  store i64 -70, ptr %9, align 8
  store i32 1, ptr %23, align 4
  br label %193

52:                                               ; preds = %47
  %53 = load i64, ptr %11, align 8, !tbaa !3
  %54 = icmp ult i64 %53, 256
  br i1 %54, label %55, label %56

55:                                               ; preds = %52
  store i64 -70, ptr %9, align 8
  store i32 1, ptr %23, align 4
  br label %193

56:                                               ; preds = %52
  %57 = getelementptr inbounds [256 x i8], ptr %18, i64 0, i64 0
  call void @MEM_writeLE32(ptr noundef %57, i32 noundef -332356553)
  call void @llvm.lifetime.start.p0(i64 8, ptr %24) #10
  %58 = load ptr, ptr %12, align 8, !tbaa !7
  %59 = load i64, ptr %13, align 8, !tbaa !3
  %60 = call i64 @ZSTD_XXH64(ptr noundef captures(none) %58, i64 noundef %59, i64 noundef 0) #12
  store i64 %60, ptr %24, align 8, !tbaa !3
  call void @llvm.lifetime.start.p0(i64 4, ptr %25) #10
  %61 = load i64, ptr %24, align 8, !tbaa !3
  %62 = urem i64 %61, 2147450880
  %63 = add i64 %62, 32768
  %64 = trunc i64 %63 to i32
  store i32 %64, ptr %25, align 4, !tbaa !13
  call void @llvm.lifetime.start.p0(i64 4, ptr %26) #10
  %65 = getelementptr inbounds nuw %struct.ZDICT_params_t, ptr %7, i32 0, i32 2
  %66 = load i32, ptr %65, align 8, !tbaa !18
  %67 = icmp ne i32 %66, 0
  br i1 %67, label %68, label %71

68:                                               ; preds = %56
  %69 = getelementptr inbounds nuw %struct.ZDICT_params_t, ptr %7, i32 0, i32 2
  %70 = load i32, ptr %69, align 8, !tbaa !18
  br label %73

71:                                               ; preds = %56
  %72 = load i32, ptr %25, align 4, !tbaa !13
  br label %73

73:                                               ; preds = %71, %68
  %74 = phi i32 [ %70, %68 ], [ %72, %71 ]
  store i32 %74, ptr %26, align 4, !tbaa !13
  %75 = getelementptr inbounds [256 x i8], ptr %18, i64 0, i64 0
  %76 = getelementptr inbounds i8, ptr %75, i64 4
  %77 = load i32, ptr %26, align 4, !tbaa !13
  call void @MEM_writeLE32(ptr noundef %76, i32 noundef %77)
  call void @llvm.lifetime.end.p0(i64 4, ptr %26) #10
  call void @llvm.lifetime.end.p0(i64 4, ptr %25) #10
  call void @llvm.lifetime.end.p0(i64 8, ptr %24) #10
  store i64 8, ptr %17, align 8, !tbaa !3
  br label %78

78:                                               ; preds = %73
  %79 = load i32, ptr %20, align 4, !tbaa !13
  %80 = icmp uge i32 %79, 2
  br i1 %80, label %81, label %89

81:                                               ; preds = %78
  br label %82

82:                                               ; preds = %81
  %83 = load ptr, ptr @stderr, align 8, !tbaa !19
  %84 = call i32 (ptr, ptr, ...) @fprintf(ptr noundef %83, ptr noundef @.str, ptr noundef @.str.1) #10
  %85 = load ptr, ptr @stderr, align 8, !tbaa !19
  %86 = call i32 @fflush(ptr noundef %85)
  br label %87

87:                                               ; preds = %82
  br label %88

88:                                               ; preds = %87
  br label %89

89:                                               ; preds = %88, %78
  br label %90

90:                                               ; preds = %89
  br label %91

91:                                               ; preds = %90
  br label %92

92:                                               ; preds = %91
  %93 = load i32, ptr %20, align 4, !tbaa !13
  %94 = icmp uge i32 %93, 2
  br i1 %94, label %95, label %103

95:                                               ; preds = %92
  br label %96

96:                                               ; preds = %95
  %97 = load ptr, ptr @stderr, align 8, !tbaa !19
  %98 = call i32 (ptr, ptr, ...) @fprintf(ptr noundef %97, ptr noundef @.str.2) #10
  %99 = load ptr, ptr @stderr, align 8, !tbaa !19
  %100 = call i32 @fflush(ptr noundef %99)
  br label %101

101:                                              ; preds = %96
  br label %102

102:                                              ; preds = %101
  br label %103

103:                                              ; preds = %102, %92
  br label %104

104:                                              ; preds = %103
  br label %105

105:                                              ; preds = %104
  call void @llvm.lifetime.start.p0(i64 8, ptr %27) #10
  %106 = getelementptr inbounds [256 x i8], ptr %18, i64 0, i64 0
  %107 = load i64, ptr %17, align 8, !tbaa !3
  %108 = getelementptr inbounds nuw i8, ptr %106, i64 %107
  %109 = load i64, ptr %17, align 8, !tbaa !3
  %110 = sub i64 256, %109
  %111 = load i32, ptr %19, align 4, !tbaa !13
  %112 = load ptr, ptr %14, align 8, !tbaa !7
  %113 = load ptr, ptr %15, align 8, !tbaa !11
  %114 = load i32, ptr %16, align 4, !tbaa !13
  %115 = load ptr, ptr %12, align 8, !tbaa !7
  %116 = load i64, ptr %13, align 8, !tbaa !3
  %117 = load i32, ptr %20, align 4, !tbaa !13
  %118 = call i64 @ZDICT_analyzeEntropy(ptr noundef %108, i64 noundef %110, i32 noundef %111, ptr noundef %112, ptr noundef %113, i32 noundef %114, ptr noundef %115, i64 noundef %116, i32 noundef %117)
  store i64 %118, ptr %27, align 8, !tbaa !3
  %119 = load i64, ptr %27, align 8, !tbaa !3
  %120 = call i32 @ZDICT_isError(i64 noundef %119)
  %121 = icmp ne i32 %120, 0
  br i1 %121, label %122, label %124

122:                                              ; preds = %105
  %123 = load i64, ptr %27, align 8, !tbaa !3
  store i64 %123, ptr %9, align 8
  store i32 1, ptr %23, align 4
  br label %128

124:                                              ; preds = %105
  %125 = load i64, ptr %27, align 8, !tbaa !3
  %126 = load i64, ptr %17, align 8, !tbaa !3
  %127 = add i64 %126, %125
  store i64 %127, ptr %17, align 8, !tbaa !3
  store i32 0, ptr %23, align 4
  br label %128

128:                                              ; preds = %124, %122
  call void @llvm.lifetime.end.p0(i64 8, ptr %27) #10
  %129 = load i32, ptr %23, align 4
  switch i32 %129, label %193 [
    i32 0, label %130
  ]

130:                                              ; preds = %128
  %131 = load i64, ptr %17, align 8, !tbaa !3
  %132 = load i64, ptr %13, align 8, !tbaa !3
  %133 = add i64 %131, %132
  %134 = load i64, ptr %11, align 8, !tbaa !3
  %135 = icmp ugt i64 %133, %134
  br i1 %135, label %136, label %140

136:                                              ; preds = %130
  %137 = load i64, ptr %11, align 8, !tbaa !3
  %138 = load i64, ptr %17, align 8, !tbaa !3
  %139 = sub i64 %137, %138
  store i64 %139, ptr %13, align 8, !tbaa !3
  br label %140

140:                                              ; preds = %136, %130
  %141 = load i64, ptr %13, align 8, !tbaa !3
  %142 = load i64, ptr %21, align 8, !tbaa !3
  %143 = icmp ult i64 %141, %142
  br i1 %143, label %144, label %170

144:                                              ; preds = %140
  br label %145

145:                                              ; preds = %144
  %146 = load i64, ptr %17, align 8, !tbaa !3
  %147 = load i64, ptr %21, align 8, !tbaa !3
  %148 = add i64 %146, %147
  %149 = load i64, ptr %11, align 8, !tbaa !3
  %150 = icmp ugt i64 %148, %149
  br i1 %150, label %151, label %164

151:                                              ; preds = %145
  br label %152

152:                                              ; preds = %151
  br label %153

153:                                              ; preds = %152
  br label %154

154:                                              ; preds = %153
  br label %155

155:                                              ; preds = %154
  br label %156

156:                                              ; preds = %155
  br label %157

157:                                              ; preds = %156
  br label %158

158:                                              ; preds = %157
  br label %159

159:                                              ; preds = %158
  br label %160

160:                                              ; preds = %159
  br label %161

161:                                              ; preds = %160
  br label %162

162:                                              ; preds = %161
  br label %163

163:                                              ; preds = %162
  store i64 -70, ptr %9, align 8
  store i32 1, ptr %23, align 4
  br label %193

164:                                              ; preds = %145
  br label %165

165:                                              ; preds = %164
  br label %166

166:                                              ; preds = %165
  %167 = load i64, ptr %21, align 8, !tbaa !3
  %168 = load i64, ptr %13, align 8, !tbaa !3
  %169 = sub i64 %167, %168
  store i64 %169, ptr %22, align 8, !tbaa !3
  br label %171

170:                                              ; preds = %140
  store i64 0, ptr %22, align 8, !tbaa !3
  br label %171

171:                                              ; preds = %170, %166
  call void @llvm.lifetime.start.p0(i64 8, ptr %28) #10
  %172 = load i64, ptr %17, align 8, !tbaa !3
  %173 = load i64, ptr %22, align 8, !tbaa !3
  %174 = add i64 %172, %173
  %175 = load i64, ptr %13, align 8, !tbaa !3
  %176 = add i64 %174, %175
  store i64 %176, ptr %28, align 8, !tbaa !3
  call void @llvm.lifetime.start.p0(i64 8, ptr %29) #10
  %177 = load ptr, ptr %10, align 8, !tbaa !7
  store ptr %177, ptr %29, align 8, !tbaa !21
  call void @llvm.lifetime.start.p0(i64 8, ptr %30) #10
  %178 = load ptr, ptr %29, align 8, !tbaa !21
  %179 = load i64, ptr %17, align 8, !tbaa !3
  %180 = getelementptr inbounds nuw i8, ptr %178, i64 %179
  store ptr %180, ptr %30, align 8, !tbaa !21
  call void @llvm.lifetime.start.p0(i64 8, ptr %31) #10
  %181 = load ptr, ptr %30, align 8, !tbaa !21
  %182 = load i64, ptr %22, align 8, !tbaa !3
  %183 = getelementptr inbounds nuw i8, ptr %181, i64 %182
  store ptr %183, ptr %31, align 8, !tbaa !21
  %184 = load ptr, ptr %31, align 8, !tbaa !21
  %185 = load ptr, ptr %12, align 8, !tbaa !7
  %186 = load i64, ptr %13, align 8, !tbaa !3
  call void @llvm.memmove.p0.p0.i64(ptr align 1 %184, ptr align 1 %185, i64 %186, i1 false)
  %187 = load ptr, ptr %29, align 8, !tbaa !21
  %188 = getelementptr inbounds [256 x i8], ptr %18, i64 0, i64 0
  %189 = load i64, ptr %17, align 8, !tbaa !3
  call void @llvm.memcpy.p0.p0.i64(ptr align 1 %187, ptr align 16 %188, i64 %189, i1 false)
  %190 = load ptr, ptr %30, align 8, !tbaa !21
  %191 = load i64, ptr %22, align 8, !tbaa !3
  call void @llvm.memset.p0.i64(ptr align 1 %190, i8 0, i64 %191, i1 false)
  %192 = load i64, ptr %28, align 8, !tbaa !3
  store i64 %192, ptr %9, align 8
  store i32 1, ptr %23, align 4
  call void @llvm.lifetime.end.p0(i64 8, ptr %31) #10
  call void @llvm.lifetime.end.p0(i64 8, ptr %30) #10
  call void @llvm.lifetime.end.p0(i64 8, ptr %29) #10
  call void @llvm.lifetime.end.p0(i64 8, ptr %28) #10
  br label %193

193:                                              ; preds = %171, %163, %128, %55, %51
  call void @llvm.lifetime.end.p0(i64 8, ptr %22) #10
  call void @llvm.lifetime.end.p0(i64 8, ptr %21) #10
  call void @llvm.lifetime.end.p0(i64 4, ptr %20) #10
  call void @llvm.lifetime.end.p0(i64 4, ptr %19) #10
  call void @llvm.lifetime.end.p0(i64 256, ptr %18) #10
  call void @llvm.lifetime.end.p0(i64 8, ptr %17) #10
  %194 = load i64, ptr %9, align 8
  ret i64 %194
}